; Function Attrs: nofree norecurse nosync nounwind memory(argmem: write) uwtable
define hidden i64 @lexbor_conv_int64_to_data(i64 noundef %0, ptr noundef writeonly captures(none) %1, i64 noundef %2) local_unnamed_addr #2 {
  %.not = icmp eq i64 %0, 0
  br i1 %.not, label %9, label %4

4:                                                ; preds = %3
  %5 = icmp slt i64 %0, 0
  %.lobit = lshr i64 %0, 63
  br label %6

6:                                                ; preds = %4, %6
  %.150 = phi i64 [ %.lobit, %4 ], [ %7, %6 ]
  %.03549 = phi i64 [ %0, %4 ], [ %8, %6 ]
  %7 = add i64 %.150, 1
  %8 = sdiv i64 %.03549, 10
  %.03549.off = add i64 %.03549, 9
  %.not43 = icmp ult i64 %.03549.off, 19
  br i1 %.not43, label %11, label %6

9:                                                ; preds = %3
  %.not42 = icmp eq i64 %2, 0
  br i1 %.not42, label %.loopexit, label %10

10:                                               ; preds = %9
  store i8 48, ptr %1, align 1, !tbaa !4
  br label %.loopexit

11:                                               ; preds = %6
  %spec.select = tail call i64 @llvm.abs.i64(i64 %0, i1 true)
  %12 = icmp ult i64 %2, %7
  br i1 %12, label %13, label %.loopexit48

13:                                               ; preds = %11
  %14 = sub i64 %.lobit, %2
  %15 = add i64 %14, %7
  %.not4451 = icmp eq i64 %15, %.lobit
  br i1 %.not4451, label %.loopexit48, label %.lr.ph

.lr.ph:                                           ; preds = %13, %.lr.ph
  %.03253 = phi i64 [ %16, %.lr.ph ], [ %15, %13 ]
  %.23952 = phi i64 [ %17, %.lr.ph ], [ %spec.select, %13 ]
  %16 = add i64 %.03253, -1
  %17 = udiv i64 %.23952, 10
  %.not44 = icmp eq i64 %16, %.lobit
  br i1 %.not44, label %.loopexit48, label %.lr.ph

.loopexit48:                                      ; preds = %.lr.ph, %13, %11
  %.138 = phi i64 [ %spec.select, %11 ], [ %spec.select, %13 ], [ %17, %.lr.ph ]
  %.2 = phi i64 [ %7, %11 ], [ %2, %13 ], [ %2, %.lr.ph ]
  br i1 %5, label %18, label %19

18:                                               ; preds = %.loopexit48
  store i8 45, ptr %1, align 1, !tbaa !4
  br label %19

19:                                               ; preds = %18, %.loopexit48
  %20 = getelementptr inbounds nuw i8, ptr %1, i64 %.2
  store i8 0, ptr %20, align 1, !tbaa !4
  %.not4654 = icmp eq i64 %.2, %.lobit
  br i1 %.not4654, label %.loopexit, label %.lr.ph57

.lr.ph57:                                         ; preds = %19, %.lr.ph57
  %.13356 = phi i64 [ %21, %.lr.ph57 ], [ %.2, %19 ]
  %.355 = phi i64 [ %26, %.lr.ph57 ], [ %.138, %19 ]
  %21 = add i64 %.13356, -1
  %22 = urem i64 %.355, 10
  %23 = getelementptr inbounds nuw i8, ptr @.str, i64 %22
  %24 = load i8, ptr %23, align 1, !tbaa !4
  %25 = getelementptr inbounds nuw i8, ptr %1, i64 %21
  store i8 %24, ptr %25, align 1, !tbaa !4
  %26 = udiv i64 %.355, 10
  %.not46 = icmp eq i64 %21, %.lobit
  br i1 %.not46, label %.loopexit, label %.lr.ph57

.loopexit:                                        ; preds = %.lr.ph57, %19, %9, %10
  %.036 = phi i64 [ 1, %10 ], [ 0, %9 ], [ %.lobit, %19 ], [ %.2, %.lr.ph57 ]
  ret i64 %.036
}